target datalayout = "e-m:e-p270:32:32-p271:32:32-p272:64:64-i64:64-i128:128-f80:128-n8:16:32:64-S128"
target triple = "x86_64-pc-linux-gnu"

%struct._asn1_ctx_t = type { i32, i32, i8, ptr, ptr, ptr, ptr, ptr, %struct.anon, %struct.anon.2, %struct.anon.3, ptr }
%struct.anon = type { i32, i8, i8, i8, ptr, ptr, i32, i32, ptr, ptr, ptr, %union.anon }
%union.anon = type { %struct.anon.0 }
%struct.anon.0 = type { ptr }
%struct.anon.2 = type { ptr, ptr, ptr }
%struct.anon.3 = type { i32, i8, ptr, i32, i32, ptr, ptr, ptr, %union.anon.4 }
%union.anon.4 = type { %struct.anon.5 }
%struct.anon.5 = type { ptr }

@hf_qsig_wtmch_qsig_wtmch_EnquiryRes_PDU = internal global i32 0, align 4
@ett_qsig_wtmch_EnquiryRes = internal global i32 0, align 4

; Function Attrs: null_pointer_is_valid sspstrong uwtable
define internal i32 @dissect_qsig_wtmch_EnquiryRes(i1 noundef zeroext %0, ptr noundef %1, i32 noundef %2, ptr noundef %3, ptr noundef %4, i32 noundef %5) #0 {
  %7 = alloca i8, align 1
  %8 = alloca ptr, align 8
  %9 = alloca i32, align 4
  %10 = alloca ptr, align 8
  %11 = alloca ptr, align 8
  %12 = alloca i32, align 4
  %13 = zext i1 %0 to i8
  store i8 %13, ptr %7, align 1
  store ptr %1, ptr %8, align 8
  store i32 %2, ptr %9, align 4
  store ptr %3, ptr %10, align 8
  store ptr %4, ptr %11, align 8
  store i32 %5, ptr %12, align 4
  %14 = load ptr, ptr %10, align 8
  %15 = load ptr, ptr %11, align 8
  %16 = load ptr, ptr %8, align 8
  %17 = load i32, ptr %9, align 4
  %18 = load i32, ptr %12, align 4
  %19 = load i32, ptr @ett_qsig_wtmch_EnquiryRes, align 4
  %20 = call i32 @dissect_ber_choice(ptr noundef %14, ptr noundef %15, ptr noundef %16, i32 noundef %17, ptr noundef @qsig_wtmch_EnquiryRes_choice, i32 noundef %18, i32 noundef %19, ptr noundef null)
  store i32 %20, ptr %9, align 4
  %21 = load i32, ptr %9, align 4
  ret i32 %21
}

; Function Attrs: null_pointer_is_valid sspstrong uwtable
define internal i32 @dissect_qsig_wtmch_EnquiryRes_PDU(ptr noundef %0, ptr noundef %1, ptr noundef %2, ptr noundef %3) #0 {
  %5 = alloca ptr, align 8
  %6 = alloca ptr, align 8
  %7 = alloca ptr, align 8
  %8 = alloca ptr, align 8
  %9 = alloca i32, align 4
  %10 = alloca %struct._asn1_ctx_t, align 8
  store ptr %0, ptr %5, align 8
  store ptr %1, ptr %6, align 8
  store ptr %2, ptr %7, align 8
  store ptr %3, ptr %8, align 8
  call void @llvm.lifetime.start.p0(i64 4, ptr %9) #6
  store i32 0, ptr %9, align 4
  call void @llvm.lifetime.start.p0(i64 208, ptr %10) #6
  %11 = load ptr, ptr %6, align 8
  call void @asn1_ctx_init(ptr noundef %10, i32 noundef 0, i1 noundef zeroext true, ptr noundef %11)
  %12 = load ptr, ptr %5, align 8
  %13 = load i32, ptr %9, align 4
  %14 = load ptr, ptr %7, align 8
  %15 = load i32, ptr @hf_qsig_wtmch_qsig_wtmch_EnquiryRes_PDU, align 4
  %16 = call i32 @dissect_qsig_wtmch_EnquiryRes(i1 noundef zeroext false, ptr noundef %12, i32 noundef %13, ptr noundef %10, ptr noundef %14, i32 noundef %15)
  store i32 %16, ptr %9, align 4
  %17 = load i32, ptr %9, align 4
  call void @llvm.lifetime.end.p0(i64 208, ptr %10) #6
  call void @llvm.lifetime.end.p0(i64 4, ptr %9) #6
  ret i32 %17
}